; Function Attrs: nounwind uwtable
define dso_local i64 @bb_g_job_get_est_start(ptr noundef %0) local_unnamed_addr #0 {
  %2 = alloca %struct.timeval, align 8
  %3 = alloca %struct.timeval, align 8
  %4 = alloca [20 x i8], align 16
  %5 = alloca i64, align 8
  call void @llvm.lifetime.start.p0(i64 16, ptr nonnull %2) #11
  call void @llvm.lifetime.start.p0(i64 16, ptr nonnull %3) #11
  call void @llvm.lifetime.start.p0(i64 20, ptr nonnull %4) #11
  call void @llvm.memset.p0.i64(ptr noundef nonnull align 16 dereferenceable(20) %4, i8 0, i64 20, i1 false)
  call void @llvm.lifetime.start.p0(i64 8, ptr nonnull %5) #11
  %6 = tail call i64 @time(ptr noundef null) #11
  %7 = call i32 @gettimeofday(ptr noundef nonnull %2, ptr noundef null) #11
  %8 = tail call i32 @pthread_mutex_lock(ptr noundef nonnull @g_context_lock) #11
  %.not = icmp eq i32 %8, 0
  br i1 %.not, label %.preheader, label %11

.preheader:                                       ; preds = %1
  %9 = load i32, ptr @g_context_cnt, align 4
  %10 = icmp sgt i32 %9, 0
  br i1 %10, label %.lr.ph, label %._crit_edge

11:                                               ; preds = %1
  %12 = tail call ptr @__errno_location() #12
  store i32 %8, ptr %12, align 4
  tail call void (ptr, ...) @fatal_abort(ptr noundef nonnull @.str.1, ptr noundef nonnull @__func__.bb_g_job_get_est_start) #13
  unreachable

.lr.ph:                                           ; preds = %.preheader, %.lr.ph
  %indvars.iv = phi i64 [ %indvars.iv.next, %.lr.ph ], [ 0, %.preheader ]
  %.01216 = phi i64 [ %17, %.lr.ph ], [ %6, %.preheader ]
  %13 = load ptr, ptr @ops, align 8
  %14 = getelementptr inbounds nuw %struct.slurm_bb_ops, ptr %13, i64 %indvars.iv, i32 9
  %15 = load ptr, ptr %14, align 8
  %16 = tail call i64 %15(ptr noundef %0) #11
  %17 = tail call i64 @llvm.smax.i64(i64 %.01216, i64 %16)
  %indvars.iv.next = add nuw nsw i64 %indvars.iv, 1
  %18 = load i32, ptr @g_context_cnt, align 4
  %19 = sext i32 %18 to i64
  %20 = icmp slt i64 %indvars.iv.next, %19
  br i1 %20, label %.lr.ph, label %._crit_edge, !llvm.loop !20

._crit_edge:                                      ; preds = %.lr.ph, %.preheader
  %.012.lcssa = phi i64 [ %6, %.preheader ], [ %17, %.lr.ph ]
  %21 = tail call i32 @pthread_mutex_unlock(ptr noundef nonnull @g_context_lock) #11
  %.not15 = icmp eq i32 %21, 0
  br i1 %.not15, label %24, label %22

22:                                               ; preds = %._crit_edge
  %23 = tail call ptr @__errno_location() #12
  store i32 %21, ptr %23, align 4
  tail call void (ptr, ...) @fatal_abort(ptr noundef nonnull @.str.8, ptr noundef nonnull @__func__.bb_g_job_get_est_start) #13
  unreachable

24:                                               ; preds = %._crit_edge
  %25 = call i32 @gettimeofday(ptr noundef nonnull %3, ptr noundef null) #11
  call void @slurm_diff_tv_str(ptr noundef nonnull %2, ptr noundef nonnull %3, ptr noundef nonnull %4, i32 noundef 20, ptr noundef nonnull @__func__.bb_g_job_get_est_start, i64 noundef 0, ptr noundef nonnull %5) #11
  call void @llvm.lifetime.end.p0(i64 8, ptr nonnull %5) #11
  call void @llvm.lifetime.end.p0(i64 20, ptr nonnull %4) #11
  call void @llvm.lifetime.end.p0(i64 16, ptr nonnull %3) #11
  call void @llvm.lifetime.end.p0(i64 16, ptr nonnull %2) #11
  ret i64 %.012.lcssa
}